target datalayout = "e-m:e-p270:32:32-p271:32:32-p272:64:64-i64:64-i128:128-f80:128-n8:16:32:64-S128"
target triple = "x86_64-pc-linux-gnu"

%"class.llvm::TargetRegisterClass" = type { ptr, ptr, ptr, %"struct.llvm::LaneBitmask", i8, i8, i8, i8, i8, ptr, ptr }
%"struct.llvm::LaneBitmask" = type { i64 }
%"class.llvm::Register" = type { i32 }
%"class.llvm::MCRegister" = type { i32 }
%"class.llvm::MachineOperand" = type { i32, %union.anon.347, ptr, %"union.llvm::MachineOperand::ContentsUnion" }
%union.anon.347 = type { i32 }
%"union.llvm::MachineOperand::ContentsUnion" = type { %"class.llvm::ArrayRef.348" }
%"class.llvm::ArrayRef.348" = type { ptr, i64 }
%"class.llvm::DebugLoc" = type { %"class.llvm::TypedTrackingMDRef" }
%"class.llvm::TypedTrackingMDRef" = type { %"class.llvm::TrackingMDRef" }
%"class.llvm::TrackingMDRef" = type { ptr }
%"class.llvm::MachineInstr" = type <{ %"class.llvm::ilist_node_with_parent", ptr, ptr, ptr, [3 x i8], %"class.llvm::ArrayRecycler<llvm::MachineOperand>::Capacity", i32, %"class.llvm::PointerSumType", %"class.llvm::DebugLoc", i32, i16, [2 x i8] }>
%"class.llvm::ilist_node_with_parent" = type { %"class.llvm::ilist_node.298" }
%"class.llvm::ilist_node.298" = type { %"class.llvm::ilist_node_impl.299" }
%"class.llvm::ilist_node_impl.299" = type { %"class.llvm::ilist_node_base.300" }
%"class.llvm::ilist_node_base.300" = type { %"class.llvm::ilist_detail::node_base_prevnext.301" }
%"class.llvm::ilist_detail::node_base_prevnext.301" = type { %"class.llvm::PointerIntPair.302", ptr }
%"class.llvm::PointerIntPair.302" = type { %"struct.llvm::detail::PunnedPointer.303" }
%"struct.llvm::detail::PunnedPointer.303" = type { [8 x i8] }
%"class.llvm::ArrayRecycler<llvm::MachineOperand>::Capacity" = type { i8 }
%"class.llvm::PointerSumType" = type { %"union.llvm::PointerSumType<llvm::MachineInstr::ExtraInfoInlineKinds, llvm::PointerSumTypeMember<0, llvm::MachineMemOperand *>, llvm::PointerSumTypeMember<1, llvm::MCSymbol *>, llvm::PointerSumTypeMember<2, llvm::MCSymbol *>, llvm::PointerSumTypeMember<3, llvm::MachineInstr::ExtraInfo *>>::StorageT" }
%"union.llvm::PointerSumType<llvm::MachineInstr::ExtraInfoInlineKinds, llvm::PointerSumTypeMember<0, llvm::MachineMemOperand *>, llvm::PointerSumTypeMember<1, llvm::MCSymbol *>, llvm::PointerSumTypeMember<2, llvm::MCSymbol *>, llvm::PointerSumTypeMember<3, llvm::MachineInstr::ExtraInfo *>>::StorageT" = type { i64 }
%"class.llvm::MCRegisterClass" = type { ptr, ptr, i32, i16, i16, i16, i16, i8, i8, i8 }

@_ZN4llvm3X8611GR8RegClassE = external global %"class.llvm::TargetRegisterClass", align 8
@_ZN4llvm3X8612GR16RegClassE = external global %"class.llvm::TargetRegisterClass", align 8

; Function Attrs: mustprogress nounwind uwtable
define linkonce_odr hidden noundef i32 @_ZNK4llvm10MCRegistercvjEv(ptr noundef nonnull align 4 dereferenceable(4) %0) #1 comdat align 2 {
  %2 = alloca ptr, align 8
  store ptr %0, ptr %2, align 8
  %3 = load ptr, ptr %2, align 8
  %4 = getelementptr inbounds nuw %"class.llvm::MCRegister", ptr %3, i32 0, i32 0
  %5 = load i32, ptr %4, align 4
  ret i32 %5
}

; Function Attrs: mustprogress nounwind uwtable
define linkonce_odr hidden void @_ZN4llvm10MCRegisterC2Ej(ptr noundef nonnull align 4 dereferenceable(4) %0, i32 noundef %1) unnamed_addr #1 comdat align 2 {
  %3 = alloca ptr, align 8
  %4 = alloca i32, align 4
  store ptr %0, ptr %3, align 8
  store i32 %1, ptr %4, align 4
  %5 = load ptr, ptr %3, align 8
  %6 = getelementptr inbounds nuw %"class.llvm::MCRegister", ptr %5, i32 0, i32 0
  %7 = load i32, ptr %4, align 4
  store i32 %7, ptr %6, align 4
  ret void
}

; Function Attrs: mustprogress nounwind uwtable
define linkonce_odr hidden noundef zeroext i1 @_ZN4llvm10MCRegister18isPhysicalRegisterEj(i32 noundef %0) #1 comdat align 2 {
  %2 = alloca i32, align 4
  store i32 %0, ptr %2, align 4
  %3 = load i32, ptr %2, align 4
  %4 = icmp ule i32 1, %3
  br i1 %4, label %5, label %8

5:                                                ; preds = %1
  %6 = load i32, ptr %2, align 4
  %7 = icmp ult i32 %6, 1073741824
  br label %8

8:                                                ; preds = %5, %1
  %9 = phi i1 [ false, %1 ], [ %7, %5 ]
  ret i1 %9
}

; Function Attrs: mustprogress nounwind uwtable
define linkonce_odr hidden noundef zeroext i1 @_ZNK4llvm15MCRegisterClass8containsENS_10MCRegisterE(ptr noundef nonnull align 8 dereferenceable(32) %0, i32 %1) #1 comdat align 2 {
  %3 = alloca i1, align 1
  %4 = alloca %"class.llvm::MCRegister", align 4
  %5 = alloca ptr, align 8
  %6 = alloca i32, align 4
  %7 = alloca i32, align 4
  %8 = alloca i32, align 4
  %9 = getelementptr inbounds nuw %"class.llvm::MCRegister", ptr %4, i32 0, i32 0
  store i32 %1, ptr %9, align 4
  store ptr %0, ptr %5, align 8
  %10 = load ptr, ptr %5, align 8
  %11 = call noundef i32 @_ZNK4llvm10MCRegistercvjEv(ptr noundef nonnull align 4 dereferenceable(4) %4)
  store i32 %11, ptr %6, align 4
  %12 = load i32, ptr %6, align 4
  %13 = urem i32 %12, 8
  store i32 %13, ptr %7, align 4
  %14 = load i32, ptr %6, align 4
  %15 = udiv i32 %14, 8
  store i32 %15, ptr %8, align 4
  %16 = load i32, ptr %8, align 4
  %17 = getelementptr inbounds nuw %"class.llvm::MCRegisterClass", ptr %10, i32 0, i32 4
  %18 = load i16, ptr %17, align 2
  %19 = zext i16 %18 to i32
  %20 = icmp uge i32 %16, %19
  br i1 %20, label %21, label %22

21:                                               ; preds = %2
  store i1 false, ptr %3, align 1
  br label %34

22:                                               ; preds = %2
  %23 = getelementptr inbounds nuw %"class.llvm::MCRegisterClass", ptr %10, i32 0, i32 1
  %24 = load ptr, ptr %23, align 8
  %25 = load i32, ptr %8, align 4
  %26 = zext i32 %25 to i64
  %27 = getelementptr inbounds i8, ptr %24, i64 %26
  %28 = load i8, ptr %27, align 1
  %29 = zext i8 %28 to i32
  %30 = load i32, ptr %7, align 4
  %31 = shl i32 1, %30
  %32 = and i32 %29, %31
  %33 = icmp ne i32 %32, 0
  store i1 %33, ptr %3, align 1
  br label %34

34:                                               ; preds = %22, %21
  %35 = load i1, ptr %3, align 1
  ret i1 %35
}

; Function Attrs: mustprogress nounwind uwtable
define linkonce_odr hidden i32 @_ZNK4llvm8Register7asMCRegEv(ptr noundef nonnull align 4 dereferenceable(4) %0) #1 comdat align 2 {
  %2 = alloca %"class.llvm::MCRegister", align 4
  %3 = alloca ptr, align 8
  store ptr %0, ptr %3, align 8
  %4 = load ptr, ptr %3, align 8
  %5 = getelementptr inbounds nuw %"class.llvm::Register", ptr %4, i32 0, i32 0
  %6 = load i32, ptr %5, align 4
  call void @_ZN4llvm10MCRegisterC2Ej(ptr noundef nonnull align 4 dereferenceable(4) %2, i32 noundef %6)
  %7 = getelementptr inbounds nuw %"class.llvm::MCRegister", ptr %2, i32 0, i32 0
  %8 = load i32, ptr %7, align 4
  ret i32 %8
}

; Function Attrs: mustprogress nounwind uwtable
define linkonce_odr hidden noundef zeroext i1 @_ZN4llvm8Register18isPhysicalRegisterEj(i32 noundef %0) #1 comdat align 2 {
  %2 = alloca i32, align 4
  store i32 %0, ptr %2, align 4
  %3 = load i32, ptr %2, align 4
  %4 = call noundef zeroext i1 @_ZN4llvm10MCRegister18isPhysicalRegisterEj(i32 noundef %3)
  ret i1 %4
}

; Function Attrs: mustprogress nounwind uwtable
define linkonce_odr hidden void @_ZN4llvm8RegisterC2Ej(ptr noundef nonnull align 4 dereferenceable(4) %0, i32 noundef %1) unnamed_addr #1 comdat align 2 {
  %3 = alloca ptr, align 8
  %4 = alloca i32, align 4
  store ptr %0, ptr %3, align 8
  store i32 %1, ptr %4, align 4
  %5 = load ptr, ptr %3, align 8
  %6 = getelementptr inbounds nuw %"class.llvm::Register", ptr %5, i32 0, i32 0
  %7 = load i32, ptr %4, align 4
  store i32 %7, ptr %6, align 4
  ret void
}

; Function Attrs: mustprogress nounwind uwtable
define linkonce_odr hidden noundef zeroext i1 @_ZNK4llvm19TargetRegisterClass8containsENS_8RegisterE(ptr noundef nonnull align 8 dereferenceable(56) %0, i32 %1) #1 comdat align 2 {
  %3 = alloca i1, align 1
  %4 = alloca %"class.llvm::Register", align 4
  %5 = alloca ptr, align 8
  %6 = alloca %"class.llvm::MCRegister", align 4
  %7 = getelementptr inbounds nuw %"class.llvm::Register", ptr %4, i32 0, i32 0
  store i32 %1, ptr %7, align 4
  store ptr %0, ptr %5, align 8
  %8 = load ptr, ptr %5, align 8
  %9 = call noundef zeroext i1 @_ZNK4llvm8Register10isPhysicalEv(ptr noundef nonnull align 4 dereferenceable(4) %4)
  br i1 %9, label %11, label %10

10:                                               ; preds = %2
  store i1 false, ptr %3, align 1
  br label %19

11:                                               ; preds = %2
  %12 = getelementptr inbounds nuw %"class.llvm::TargetRegisterClass", ptr %8, i32 0, i32 0
  %13 = load ptr, ptr %12, align 8
  %14 = call i32 @_ZNK4llvm8Register7asMCRegEv(ptr noundef nonnull align 4 dereferenceable(4) %4)
  %15 = getelementptr inbounds nuw %"class.llvm::MCRegister", ptr %6, i32 0, i32 0
  store i32 %14, ptr %15, align 4
  %16 = getelementptr inbounds nuw %"class.llvm::MCRegister", ptr %6, i32 0, i32 0
  %17 = load i32, ptr %16, align 4
  %18 = call noundef zeroext i1 @_ZNK4llvm15MCRegisterClass8containsENS_10MCRegisterE(ptr noundef nonnull align 8 dereferenceable(32) %13, i32 %17)
  store i1 %18, ptr %3, align 1
  br label %19

19:                                               ; preds = %11, %10
  %20 = load i1, ptr %3, align 1
  ret i1 %20
}

; Function Attrs: mustprogress nounwind uwtable
define linkonce_odr hidden noundef zeroext i1 @_ZNK4llvm8Register10isPhysicalEv(ptr noundef nonnull align 4 dereferenceable(4) %0) #1 comdat align 2 {
  %2 = alloca ptr, align 8
  store ptr %0, ptr %2, align 8
  %3 = load ptr, ptr %2, align 8
  %4 = getelementptr inbounds nuw %"class.llvm::Register", ptr %3, i32 0, i32 0
  %5 = load i32, ptr %4, align 4
  %6 = call noundef zeroext i1 @_ZN4llvm8Register18isPhysicalRegisterEj(i32 noundef %5)
  ret i1 %6
}

; Function Attrs: mustprogress nounwind uwtable
define linkonce_odr hidden i32 @_ZNK4llvm14MachineOperand6getRegEv(ptr noundef nonnull align 8 dereferenceable(32) %0) #1 comdat align 2 {
  %2 = alloca %"class.llvm::Register", align 4
  %3 = alloca ptr, align 8
  store ptr %0, ptr %3, align 8
  %4 = load ptr, ptr %3, align 8
  %5 = getelementptr inbounds nuw %"class.llvm::MachineOperand", ptr %4, i32 0, i32 1
  %6 = load i32, ptr %5, align 4
  call void @_ZN4llvm8RegisterC2Ej(ptr noundef nonnull align 4 dereferenceable(4) %2, i32 noundef %6)
  %7 = getelementptr inbounds nuw %"class.llvm::Register", ptr %2, i32 0, i32 0
  %8 = load i32, ptr %7, align 4
  ret i32 %8
}

; Function Attrs: mustprogress nounwind uwtable
define linkonce_odr hidden noundef nonnull align 8 dereferenceable(32) ptr @_ZNK4llvm12MachineInstr10getOperandEj(ptr noundef nonnull align 8 dereferenceable(70) %0, i32 noundef %1) #1 comdat align 2 {
  %3 = alloca ptr, align 8
  %4 = alloca i32, align 4
  store ptr %0, ptr %3, align 8
  store i32 %1, ptr %4, align 4
  %5 = load ptr, ptr %3, align 8
  %6 = getelementptr inbounds nuw %"class.llvm::MachineInstr", ptr %5, i32 0, i32 3
  %7 = load ptr, ptr %6, align 8
  %8 = load i32, ptr %4, align 4
  %9 = zext i32 %8 to i64
  %10 = getelementptr inbounds %"class.llvm::MachineOperand", ptr %7, i64 %9
  ret ptr %10
}

; Function Attrs: mustprogress nounwind uwtable
define internal noundef zeroext i1 @_ZNK12_GLOBAL__N_118InstrConverterBase7isLegalEPKN4llvm12MachineInstrEPKNS1_15TargetInstrInfoE(ptr noundef nonnull align 8 dereferenceable(12) %0, ptr noundef %1, ptr noundef %2) unnamed_addr #1 align 2 {
  %4 = alloca ptr, align 8
  %5 = alloca ptr, align 8
  %6 = alloca ptr, align 8
  store ptr %0, ptr %4, align 8
  store ptr %1, ptr %5, align 8
  store ptr %2, ptr %6, align 8
  ret i1 true
}

; Function Attrs: mustprogress nounwind uwtable
define internal noundef zeroext i1 @_ZNK12_GLOBAL__N_117InstrCOPYReplacer7isLegalEPKN4llvm12MachineInstrEPKNS1_15TargetInstrInfoE(ptr noundef nonnull align 8 dereferenceable(20) %0, ptr noundef %1, ptr noundef %2) unnamed_addr #1 align 2 {
  %4 = alloca i1, align 1
  %5 = alloca ptr, align 8
  %6 = alloca ptr, align 8
  %7 = alloca ptr, align 8
  %8 = alloca %"class.llvm::Register", align 4
  %9 = alloca %"class.llvm::Register", align 4
  %10 = alloca %"class.llvm::Register", align 4
  %11 = alloca %"class.llvm::Register", align 4
  %12 = alloca %"class.llvm::Register", align 4
  %13 = alloca %"class.llvm::Register", align 4
  store ptr %0, ptr %5, align 8
  store ptr %1, ptr %6, align 8
  store ptr %2, ptr %7, align 8
  %14 = load ptr, ptr %5, align 8
  %15 = load ptr, ptr %6, align 8
  %16 = load ptr, ptr %7, align 8
  %17 = call noundef zeroext i1 @_ZNK12_GLOBAL__N_118InstrConverterBase7isLegalEPKN4llvm12MachineInstrEPKNS1_15TargetInstrInfoE(ptr noundef nonnull align 8 dereferenceable(12) %14, ptr noundef %15, ptr noundef %16)
  br i1 %17, label %19, label %18

18:                                               ; preds = %3
  store i1 false, ptr %4, align 1
  br label %50

19:                                               ; preds = %3
  %20 = load ptr, ptr %6, align 8
  %21 = call noundef nonnull align 8 dereferenceable(32) ptr @_ZNK4llvm12MachineInstr10getOperandEj(ptr noundef nonnull align 8 dereferenceable(70) %20, i32 noundef 0)
  %22 = call i32 @_ZNK4llvm14MachineOperand6getRegEv(ptr noundef nonnull align 8 dereferenceable(32) %21)
  %23 = getelementptr inbounds nuw %"class.llvm::Register", ptr %8, i32 0, i32 0
  store i32 %22, ptr %23, align 4
  %24 = call noundef zeroext i1 @_ZNK4llvm8Register10isPhysicalEv(ptr noundef nonnull align 4 dereferenceable(4) %8)
  br i1 %24, label %25, label %34

25:                                               ; preds = %19
  call void @llvm.memcpy.p0.p0.i64(ptr align 4 %9, ptr align 4 %8, i64 4, i1 false)
  %26 = getelementptr inbounds nuw %"class.llvm::Register", ptr %9, i32 0, i32 0
  %27 = load i32, ptr %26, align 4
  %28 = call noundef zeroext i1 @_ZNK4llvm19TargetRegisterClass8containsENS_8RegisterE(ptr noundef nonnull align 8 dereferenceable(56) @_ZN4llvm3X8611GR8RegClassE, i32 %27)
  br i1 %28, label %33, label %29

29:                                               ; preds = %25
  call void @llvm.memcpy.p0.p0.i64(ptr align 4 %10, ptr align 4 %8, i64 4, i1 false)
  %30 = getelementptr inbounds nuw %"class.llvm::Register", ptr %10, i32 0, i32 0
  %31 = load i32, ptr %30, align 4
  %32 = call noundef zeroext i1 @_ZNK4llvm19TargetRegisterClass8containsENS_8RegisterE(ptr noundef nonnull align 8 dereferenceable(56) @_ZN4llvm3X8612GR16RegClassE, i32 %31)
  br i1 %32, label %33, label %34

33:                                               ; preds = %29, %25
  store i1 false, ptr %4, align 1
  br label %50

34:                                               ; preds = %29, %19
  %35 = load ptr, ptr %6, align 8
  %36 = call noundef nonnull align 8 dereferenceable(32) ptr @_ZNK4llvm12MachineInstr10getOperandEj(ptr noundef nonnull align 8 dereferenceable(70) %35, i32 noundef 1)
  %37 = call i32 @_ZNK4llvm14MachineOperand6getRegEv(ptr noundef nonnull align 8 dereferenceable(32) %36)
  %38 = getelementptr inbounds nuw %"class.llvm::Register", ptr %11, i32 0, i32 0
  store i32 %37, ptr %38, align 4
  %39 = call noundef zeroext i1 @_ZNK4llvm8Register10isPhysicalEv(ptr noundef nonnull align 4 dereferenceable(4) %11)
  br i1 %39, label %40, label %49

40:                                               ; preds = %34
  call void @llvm.memcpy.p0.p0.i64(ptr align 4 %12, ptr align 4 %11, i64 4, i1 false)
  %41 = getelementptr inbounds nuw %"class.llvm::Register", ptr %12, i32 0, i32 0
  %42 = load i32, ptr %41, align 4
  %43 = call noundef zeroext i1 @_ZNK4llvm19TargetRegisterClass8containsENS_8RegisterE(ptr noundef nonnull align 8 dereferenceable(56) @_ZN4llvm3X8611GR8RegClassE, i32 %42)
  br i1 %43, label %48, label %44

44:                                               ; preds = %40
  call void @llvm.memcpy.p0.p0.i64(ptr align 4 %13, ptr align 4 %11, i64 4, i1 false)
  %45 = getelementptr inbounds nuw %"class.llvm::Register", ptr %13, i32 0, i32 0
  %46 = load i32, ptr %45, align 4
  %47 = call noundef zeroext i1 @_ZNK4llvm19TargetRegisterClass8containsENS_8RegisterE(ptr noundef nonnull align 8 dereferenceable(56) @_ZN4llvm3X8612GR16RegClassE, i32 %46)
  br i1 %47, label %48, label %49

48:                                               ; preds = %44, %40
  store i1 false, ptr %4, align 1
  br label %50

49:                                               ; preds = %44, %34
  store i1 true, ptr %4, align 1
  br label %50

50:                                               ; preds = %49, %48, %33, %18
  %51 = load i1, ptr %4, align 1
  ret i1 %51
}