; Function Attrs: mustprogress nofree norecurse nosync nounwind willreturn memory(read, inaccessiblemem: none) uwtable
define internal noundef zeroext i1 @_ZNK12_GLOBAL__N_117InstrCOPYReplacer7isLegalEPKN4llvm12MachineInstrEPKNS1_15TargetInstrInfoE(ptr nonnull readnone align 8 captures(none) %0, ptr noundef readonly captures(none) %1, ptr readnone captures(none) %2) unnamed_addr #10 align 2 {
  %4 = getelementptr inbounds nuw i8, ptr %1, i64 32
  %5 = load ptr, ptr %4, align 8
  %6 = getelementptr inbounds nuw i8, ptr %5, i64 4
  %7 = load i32, ptr %6, align 4
  %8 = add i32 %7, -1
  %9 = icmp ult i32 %8, 1073741823
  br i1 %9, label %10, label %_ZNK4llvm19TargetRegisterClass8containsENS_8RegisterE.exit11.thread

10:                                               ; preds = %3
  %11 = load ptr, ptr @_ZN4llvm3X8611GR8RegClassE, align 8
  %12 = lshr i32 %7, 3
  %13 = getelementptr inbounds nuw i8, ptr %11, i64 22
  %14 = load i16, ptr %13, align 2
  %15 = zext i16 %14 to i32
  %.not.i.i = icmp samesign ult i32 %12, %15
  br i1 %.not.i.i, label %_ZNK4llvm19TargetRegisterClass8containsENS_8RegisterE.exit, label %_ZNK4llvm19TargetRegisterClass8containsENS_8RegisterE.exit.thread

_ZNK4llvm19TargetRegisterClass8containsENS_8RegisterE.exit: ; preds = %10
  %16 = and i32 %7, 7
  %17 = getelementptr inbounds nuw i8, ptr %11, i64 8
  %18 = load ptr, ptr %17, align 8
  %19 = zext nneg i32 %12 to i64
  %20 = getelementptr inbounds nuw i8, ptr %18, i64 %19
  %21 = load i8, ptr %20, align 1
  %22 = zext i8 %21 to i32
  %23 = shl nuw nsw i32 1, %16
  %24 = and i32 %23, %22
  %.not = icmp eq i32 %24, 0
  br i1 %.not, label %_ZNK4llvm19TargetRegisterClass8containsENS_8RegisterE.exit.thread, label %70

_ZNK4llvm19TargetRegisterClass8containsENS_8RegisterE.exit.thread: ; preds = %10, %_ZNK4llvm19TargetRegisterClass8containsENS_8RegisterE.exit
  %25 = load ptr, ptr @_ZN4llvm3X8612GR16RegClassE, align 8
  %26 = getelementptr inbounds nuw i8, ptr %25, i64 22
  %27 = load i16, ptr %26, align 2
  %28 = zext i16 %27 to i32
  %.not.i.i10 = icmp samesign ult i32 %12, %28
  br i1 %.not.i.i10, label %_ZNK4llvm19TargetRegisterClass8containsENS_8RegisterE.exit11, label %_ZNK4llvm19TargetRegisterClass8containsENS_8RegisterE.exit11.thread

_ZNK4llvm19TargetRegisterClass8containsENS_8RegisterE.exit11: ; preds = %_ZNK4llvm19TargetRegisterClass8containsENS_8RegisterE.exit.thread
  %29 = and i32 %7, 7
  %30 = getelementptr inbounds nuw i8, ptr %25, i64 8
  %31 = load ptr, ptr %30, align 8
  %32 = zext nneg i32 %12 to i64
  %33 = getelementptr inbounds nuw i8, ptr %31, i64 %32
  %34 = load i8, ptr %33, align 1
  %35 = zext i8 %34 to i32
  %36 = shl nuw nsw i32 1, %29
  %37 = and i32 %36, %35
  %.not27 = icmp eq i32 %37, 0
  br i1 %.not27, label %_ZNK4llvm19TargetRegisterClass8containsENS_8RegisterE.exit11.thread, label %70

_ZNK4llvm19TargetRegisterClass8containsENS_8RegisterE.exit11.thread: ; preds = %_ZNK4llvm19TargetRegisterClass8containsENS_8RegisterE.exit.thread, %_ZNK4llvm19TargetRegisterClass8containsENS_8RegisterE.exit11, %3
  %38 = getelementptr inbounds nuw i8, ptr %5, i64 36
  %39 = load i32, ptr %38, align 4
  %40 = add i32 %39, -1
  %41 = icmp ult i32 %40, 1073741823
  br i1 %41, label %42, label %_ZNK4llvm19TargetRegisterClass8containsENS_8RegisterE.exit17.thread

42:                                               ; preds = %_ZNK4llvm19TargetRegisterClass8containsENS_8RegisterE.exit11.thread
  %43 = load ptr, ptr @_ZN4llvm3X8611GR8RegClassE, align 8
  %44 = lshr i32 %39, 3
  %45 = getelementptr inbounds nuw i8, ptr %43, i64 22
  %46 = load i16, ptr %45, align 2
  %47 = zext i16 %46 to i32
  %.not.i.i13 = icmp samesign ult i32 %44, %47
  br i1 %.not.i.i13, label %_ZNK4llvm19TargetRegisterClass8containsENS_8RegisterE.exit14, label %_ZNK4llvm19TargetRegisterClass8containsENS_8RegisterE.exit14.thread

_ZNK4llvm19TargetRegisterClass8containsENS_8RegisterE.exit14: ; preds = %42
  %48 = and i32 %39, 7
  %49 = getelementptr inbounds nuw i8, ptr %43, i64 8
  %50 = load ptr, ptr %49, align 8
  %51 = zext nneg i32 %44 to i64
  %52 = getelementptr inbounds nuw i8, ptr %50, i64 %51
  %53 = load i8, ptr %52, align 1
  %54 = zext i8 %53 to i32
  %55 = shl nuw nsw i32 1, %48
  %56 = and i32 %55, %54
  %.not28 = icmp eq i32 %56, 0
  br i1 %.not28, label %_ZNK4llvm19TargetRegisterClass8containsENS_8RegisterE.exit14.thread, label %70

_ZNK4llvm19TargetRegisterClass8containsENS_8RegisterE.exit14.thread: ; preds = %42, %_ZNK4llvm19TargetRegisterClass8containsENS_8RegisterE.exit14
  %57 = load ptr, ptr @_ZN4llvm3X8612GR16RegClassE, align 8
  %58 = getelementptr inbounds nuw i8, ptr %57, i64 22
  %59 = load i16, ptr %58, align 2
  %60 = zext i16 %59 to i32
  %.not.i.i16 = icmp samesign ult i32 %44, %60
  br i1 %.not.i.i16, label %_ZNK4llvm19TargetRegisterClass8containsENS_8RegisterE.exit17, label %_ZNK4llvm19TargetRegisterClass8containsENS_8RegisterE.exit17.thread

_ZNK4llvm19TargetRegisterClass8containsENS_8RegisterE.exit17: ; preds = %_ZNK4llvm19TargetRegisterClass8containsENS_8RegisterE.exit14.thread
  %61 = and i32 %39, 7
  %62 = getelementptr inbounds nuw i8, ptr %57, i64 8
  %63 = load ptr, ptr %62, align 8
  %64 = zext nneg i32 %44 to i64
  %65 = getelementptr inbounds nuw i8, ptr %63, i64 %64
  %66 = load i8, ptr %65, align 1
  %67 = zext i8 %66 to i32
  %68 = shl nuw nsw i32 1, %61
  %69 = and i32 %68, %67
  %.not29 = icmp eq i32 %69, 0
  br i1 %.not29, label %_ZNK4llvm19TargetRegisterClass8containsENS_8RegisterE.exit17.thread, label %70

_ZNK4llvm19TargetRegisterClass8containsENS_8RegisterE.exit17.thread: ; preds = %_ZNK4llvm19TargetRegisterClass8containsENS_8RegisterE.exit14.thread, %_ZNK4llvm19TargetRegisterClass8containsENS_8RegisterE.exit17, %_ZNK4llvm19TargetRegisterClass8containsENS_8RegisterE.exit11.thread
  br label %70

70:                                               ; preds = %_ZNK4llvm19TargetRegisterClass8containsENS_8RegisterE.exit14, %_ZNK4llvm19TargetRegisterClass8containsENS_8RegisterE.exit17, %_ZNK4llvm19TargetRegisterClass8containsENS_8RegisterE.exit, %_ZNK4llvm19TargetRegisterClass8containsENS_8RegisterE.exit11, %_ZNK4llvm19TargetRegisterClass8containsENS_8RegisterE.exit17.thread
  %.0 = phi i1 [ true, %_ZNK4llvm19TargetRegisterClass8containsENS_8RegisterE.exit17.thread ], [ false, %_ZNK4llvm19TargetRegisterClass8containsENS_8RegisterE.exit11 ], [ false, %_ZNK4llvm19TargetRegisterClass8containsENS_8RegisterE.exit ], [ false, %_ZNK4llvm19TargetRegisterClass8containsENS_8RegisterE.exit17 ], [ false, %_ZNK4llvm19TargetRegisterClass8containsENS_8RegisterE.exit14 ]
  ret i1 %.0
}